target datalayout = "e-m:e-p270:32:32-p271:32:32-p272:64:64-i64:64-i128:128-f80:128-n8:16:32:64-S128"
target triple = "x86_64-pc-linux-gnu"

%struct.darktable_t = type { %struct.dt_codepath_t, i32, i32, ptr, ptr, ptr, ptr, ptr, ptr, ptr, ptr, ptr, ptr, ptr, ptr, ptr, ptr, ptr, ptr, ptr, ptr, ptr, ptr, ptr, ptr, ptr, ptr, ptr, ptr, ptr, [64 x %struct.dt_pthread_mutex_t], %struct.dt_pthread_mutex_t, %struct.dt_pthread_mutex_t, %struct.dt_pthread_mutex_t, %struct.dt_pthread_mutex_t, %struct.dt_pthread_mutex_t, ptr, ptr, ptr, ptr, ptr, ptr, ptr, ptr, ptr, ptr, ptr, ptr, ptr, %struct.dt_lua_state_t, ptr, double, ptr, i32, [47 x i32], i32, i32, ptr, ptr, %struct.dt_sys_resources_t, %struct.dt_backthumb_t, %struct.dt_gimp_t }
%struct.dt_codepath_t = type { i8, [3 x i8] }
%struct.dt_pthread_mutex_t = type { %union.pthread_mutex_t }
%union.pthread_mutex_t = type { %struct.__pthread_mutex_s }
%struct.__pthread_mutex_s = type { i32, i32, i32, i32, i32, i16, i16, %struct.__pthread_internal_list }
%struct.__pthread_internal_list = type { ptr, ptr }
%struct.dt_lua_state_t = type { i32 }
%struct.dt_sys_resources_t = type { i64, i64, ptr, ptr, i32 }
%struct.dt_backthumb_t = type { double, double, i32, i32, i32, i32 }
%struct.dt_gimp_t = type { i32, ptr, ptr, i32, i32 }
%struct.dt_image_import_t = type { i32, ptr }

@darktable = external global %struct.darktable_t, align 8
@.str.2 = private unnamed_addr constant [127 x i8] c"generated/home/dtcxzyw/WorkSpace/Projects/compilers/llvm-opt-benchmark/bench/darktable/darktable/src/control/jobs/image_jobs.c\00", align 1
@.str.3 = private unnamed_addr constant [19 x i8] c"importing image %s\00", align 1
@.str.4 = private unnamed_addr constant [40 x i8] c"[signal] raise %s; %s:%d, function %s()\00", align 1
@.str.5 = private unnamed_addr constant [42 x i8] c"DT_SIGNAL_VIEWMANAGER_THUMBTABLE_ACTIVATE\00", align 1
@__FUNCTION__.dt_image_import_job_run = private unnamed_addr constant [24 x i8] c"dt_image_import_job_run\00", align 1

; Function Attrs: nounwind uwtable
define internal i32 @dt_image_import_job_run(ptr noundef %0) #0 {
  %2 = alloca ptr, align 8
  %3 = alloca [512 x i8], align 16
  %4 = alloca ptr, align 8
  %5 = alloca i32, align 4
  store ptr %0, ptr %2, align 8, !tbaa !10
  call void @llvm.lifetime.start.p0(i64 512, ptr %3) #6
  call void @llvm.memset.p0.i64(ptr align 16 %3, i8 0, i64 512, i1 false)
  call void @llvm.lifetime.start.p0(i64 8, ptr %4) #6
  %6 = load ptr, ptr %2, align 8, !tbaa !10
  %7 = call ptr @dt_control_job_get_params(ptr noundef %6)
  store ptr %7, ptr %4, align 8, !tbaa !64
  %8 = getelementptr inbounds [512 x i8], ptr %3, i64 0, i64 0
  %9 = call ptr @dcgettext(ptr noundef null, ptr noundef @.str.3, i32 noundef 5) #6
  %10 = load ptr, ptr %4, align 8, !tbaa !64
  %11 = getelementptr inbounds nuw %struct.dt_image_import_t, ptr %10, i32 0, i32 1
  %12 = load ptr, ptr %11, align 8, !tbaa !66
  %13 = call i32 (ptr, i64, ptr, ...) @snprintf(ptr noundef %8, i64 noundef 512, ptr noundef %9, ptr noundef %12) #6
  %14 = load ptr, ptr %2, align 8, !tbaa !10
  %15 = getelementptr inbounds [512 x i8], ptr %3, i64 0, i64 0
  call void @dt_control_job_set_progress_message(ptr noundef %14, ptr noundef %15)
  call void @llvm.lifetime.start.p0(i64 4, ptr %5) #6
  %16 = load ptr, ptr %4, align 8, !tbaa !64
  %17 = getelementptr inbounds nuw %struct.dt_image_import_t, ptr %16, i32 0, i32 0
  %18 = load i32, ptr %17, align 8, !tbaa !68
  %19 = load ptr, ptr %4, align 8, !tbaa !64
  %20 = getelementptr inbounds nuw %struct.dt_image_import_t, ptr %19, i32 0, i32 1
  %21 = load ptr, ptr %20, align 8, !tbaa !66
  %22 = call i32 @dt_image_import(i32 noundef %18, ptr noundef %21, i32 noundef 1, i32 noundef 1)
  store i32 %22, ptr %5, align 4, !tbaa !6
  %23 = load i32, ptr %5, align 4, !tbaa !6
  %24 = icmp sgt i32 %23, 0
  br i1 %24, label %25, label %52

25:                                               ; preds = %1
  br label %26

26:                                               ; preds = %25
  %27 = load i32, ptr getelementptr inbounds nuw (%struct.darktable_t, ptr @darktable, i32 0, i32 53), align 8, !tbaa !69
  %28 = and i32 %27, 1
  %29 = icmp ne i32 %28, 0
  br i1 %29, label %30, label %47

30:                                               ; preds = %26
  %31 = load i32, ptr getelementptr inbounds ([47 x i32], ptr getelementptr inbounds nuw (%struct.darktable_t, ptr @darktable, i32 0, i32 54), i64 0, i64 6), align 4, !tbaa !6
  %32 = icmp ne i32 %31, 0
  br i1 %32, label %33, label %47

33:                                               ; preds = %30
  br label %34

34:                                               ; preds = %33
  %35 = load i32, ptr getelementptr inbounds nuw (%struct.darktable_t, ptr @darktable, i32 0, i32 2), align 8, !tbaa !70
  %36 = and i32 1048576, %35
  %37 = icmp ne i32 %36, 0
  br i1 %37, label %38, label %44

38:                                               ; preds = %34
  %39 = load i32, ptr getelementptr inbounds nuw (%struct.darktable_t, ptr @darktable, i32 0, i32 2), align 8, !tbaa !70
  %40 = xor i32 %39, -1
  %41 = and i32 0, %40
  %42 = icmp ne i32 %41, 0
  br i1 %42, label %44, label %43

43:                                               ; preds = %38
  call void (ptr, ...) @dt_print_ext(ptr noundef @.str.4, ptr noundef @.str.5, ptr noundef @.str.2, i32 noundef 82, ptr noundef @__FUNCTION__.dt_image_import_job_run)
  br label %44

44:                                               ; preds = %43, %38, %34
  br label %45

45:                                               ; preds = %44
  br label %46

46:                                               ; preds = %45
  br label %47

47:                                               ; preds = %46, %30, %26
  %48 = load ptr, ptr getelementptr inbounds nuw (%struct.darktable_t, ptr @darktable, i32 0, i32 13), align 8, !tbaa !71
  %49 = load i32, ptr %5, align 4, !tbaa !6
  call void (ptr, i32, ...) @dt_control_signal_raise(ptr noundef %48, i32 noundef 6, i32 noundef %49)
  br label %50

50:                                               ; preds = %47
  br label %51

51:                                               ; preds = %50
  call void (...) @dt_control_queue_redraw()
  br label %52

52:                                               ; preds = %51, %1
  %53 = load ptr, ptr %2, align 8, !tbaa !10
  call void @dt_control_job_set_progress(ptr noundef %53, double noundef 1.000000e+00)
  call void @llvm.lifetime.end.p0(i64 4, ptr %5) #6
  call void @llvm.lifetime.end.p0(i64 8, ptr %4) #6
  call void @llvm.lifetime.end.p0(i64 512, ptr %3) #6
  ret i32 0
}