; Function Attrs: nounwind uwtable
define internal noundef i32 @dt_image_import_job_run(ptr noundef %0) #0 {
  %2 = alloca [512 x i8], align 16
  call void @llvm.lifetime.start.p0(i64 512, ptr nonnull %2) #8
  call void @llvm.memset.p0.i64(ptr noundef nonnull align 16 dereferenceable(512) %2, i8 0, i64 512, i1 false)
  %3 = tail call ptr @dt_control_job_get_params(ptr noundef %0) #8
  %4 = tail call ptr @dcgettext(ptr noundef null, ptr noundef nonnull @.str.3, i32 noundef 5) #8
  %5 = getelementptr inbounds nuw i8, ptr %3, i64 8
  %6 = load ptr, ptr %5, align 8, !tbaa !55
  %7 = call i32 (ptr, i64, ptr, ...) @snprintf(ptr noundef nonnull dereferenceable(1) %2, i64 noundef 512, ptr noundef %4, ptr noundef %6) #8
  call void @dt_control_job_set_progress_message(ptr noundef %0, ptr noundef nonnull %2) #8
  %8 = load i32, ptr %3, align 8, !tbaa !57
  %9 = load ptr, ptr %5, align 8, !tbaa !55
  %10 = call i32 @dt_image_import(i32 noundef %8, ptr noundef %9, i32 noundef 1, i32 noundef 1) #8
  %11 = icmp sgt i32 %10, 0
  br i1 %11, label %12, label %24

12:                                               ; preds = %1
  %13 = load i32, ptr getelementptr inbounds nuw (i8, ptr @darktable, i64 3128), align 8, !tbaa !58
  %14 = and i32 %13, 1
  %15 = icmp ne i32 %14, 0
  %16 = load i32, ptr getelementptr inbounds nuw (i8, ptr @darktable, i64 3156), align 4
  %17 = icmp ne i32 %16, 0
  %or.cond = select i1 %15, i1 %17, i1 false
  br i1 %or.cond, label %18, label %22

18:                                               ; preds = %12
  %19 = load i32, ptr getelementptr inbounds nuw (i8, ptr @darktable, i64 8), align 8, !tbaa !59
  %20 = and i32 %19, 1048576
  %.not = icmp eq i32 %20, 0
  br i1 %.not, label %22, label %21

21:                                               ; preds = %18
  call void (ptr, ...) @dt_print_ext(ptr noundef nonnull @.str.4, ptr noundef nonnull @.str.5, ptr noundef nonnull @.str.2, i32 noundef 82, ptr noundef nonnull @__FUNCTION__.dt_image_import_job_run) #8
  br label %22

22:                                               ; preds = %18, %21, %12
  %23 = load ptr, ptr getelementptr inbounds nuw (i8, ptr @darktable, i64 96), align 8, !tbaa !60
  call void (ptr, i32, ...) @dt_control_signal_raise(ptr noundef %23, i32 noundef 6, i32 noundef %10) #8
  call void (...) @dt_control_queue_redraw() #8
  br label %24

24:                                               ; preds = %22, %1
  call void @dt_control_job_set_progress(ptr noundef %0, double noundef 1.000000e+00) #8
  call void @llvm.lifetime.end.p0(i64 512, ptr nonnull %2) #8
  ret i32 0
}